	.file	"matmul.hip"
	.text
	.globl	_Z21__device_stub__matmulPDF16bS_Pf # -- Begin function _Z21__device_stub__matmulPDF16bS_Pf
	.p2align	4
	.type	_Z21__device_stub__matmulPDF16bS_Pf,@function
_Z21__device_stub__matmulPDF16bS_Pf:    # @_Z21__device_stub__matmulPDF16bS_Pf
	.cfi_startproc
# %bb.0:
	subq	$104, %rsp
	.cfi_def_cfa_offset 112
	movq	%rdi, 72(%rsp)
	movq	%rsi, 64(%rsp)
	movq	%rdx, 56(%rsp)
	leaq	72(%rsp), %rax
	movq	%rax, 80(%rsp)
	leaq	64(%rsp), %rax
	movq	%rax, 88(%rsp)
	leaq	56(%rsp), %rax
	movq	%rax, 96(%rsp)
	leaq	40(%rsp), %rdi
	leaq	24(%rsp), %rsi
	leaq	16(%rsp), %rdx
	leaq	8(%rsp), %rcx
	callq	__hipPopCallConfiguration
	movq	40(%rsp), %rsi
	movl	48(%rsp), %edx
	movq	24(%rsp), %rcx
	movl	32(%rsp), %r8d
	leaq	80(%rsp), %r9
	movl	$_Z6matmulPDF16bS_Pf, %edi
	pushq	8(%rsp)
	.cfi_adjust_cfa_offset 8
	pushq	24(%rsp)
	.cfi_adjust_cfa_offset 8
	callq	hipLaunchKernel
	addq	$120, %rsp
	.cfi_adjust_cfa_offset -120
	retq
.Lfunc_end0:
	.size	_Z21__device_stub__matmulPDF16bS_Pf, .Lfunc_end0-_Z21__device_stub__matmulPDF16bS_Pf
	.cfi_endproc
                                        # -- End function
	.globl	launch_matmul                   # -- Begin function launch_matmul
	.p2align	4
	.type	launch_matmul,@function
launch_matmul:                          # @launch_matmul
	.cfi_startproc
# %bb.0:
	pushq	%r15
	.cfi_def_cfa_offset 16
	pushq	%r14
	.cfi_def_cfa_offset 24
	pushq	%rbx
	.cfi_def_cfa_offset 32
	subq	$112, %rsp
	.cfi_def_cfa_offset 144
	.cfi_offset %rbx, -32
	.cfi_offset %r14, -24
	.cfi_offset %r15, -16
	movq	%rdx, %rbx
	movq	%rsi, %r14
	movq	%rdi, %r15
	movabsq	$4294968320, %rdi               # imm = 0x100000400
	movl	$1, %esi
	movq	%rdi, %rdx
	movl	$1, %ecx
	xorl	%r8d, %r8d
	xorl	%r9d, %r9d
	callq	__hipPushCallConfiguration
	testl	%eax, %eax
	jne	.LBB1_2
# %bb.1:
	movq	%r15, 72(%rsp)
	movq	%r14, 64(%rsp)
	movq	%rbx, 56(%rsp)
	leaq	72(%rsp), %rax
	movq	%rax, 80(%rsp)
	leaq	64(%rsp), %rax
	movq	%rax, 88(%rsp)
	leaq	56(%rsp), %rax
	movq	%rax, 96(%rsp)
	leaq	40(%rsp), %rdi
	leaq	24(%rsp), %rsi
	leaq	16(%rsp), %rdx
	leaq	8(%rsp), %rcx
	callq	__hipPopCallConfiguration
	movq	40(%rsp), %rsi
	movl	48(%rsp), %edx
	movq	24(%rsp), %rcx
	movl	32(%rsp), %r8d
	leaq	80(%rsp), %r9
	movl	$_Z6matmulPDF16bS_Pf, %edi
	pushq	8(%rsp)
	.cfi_adjust_cfa_offset 8
	pushq	24(%rsp)
	.cfi_adjust_cfa_offset 8
	callq	hipLaunchKernel
	addq	$16, %rsp
	.cfi_adjust_cfa_offset -16
.LBB1_2:
	addq	$112, %rsp
	.cfi_def_cfa_offset 32
	popq	%rbx
	.cfi_def_cfa_offset 24
	popq	%r14
	.cfi_def_cfa_offset 16
	popq	%r15
	.cfi_def_cfa_offset 8
	retq
.Lfunc_end1:
	.size	launch_matmul, .Lfunc_end1-launch_matmul
	.cfi_endproc
                                        # -- End function
	.p2align	4                               # -- Begin function __hip_module_ctor
	.type	__hip_module_ctor,@function
__hip_module_ctor:                      # @__hip_module_ctor
	.cfi_startproc
# %bb.0:
	subq	$40, %rsp
	.cfi_def_cfa_offset 48
	movq	__hip_gpubin_handle_a07108289d32dd29(%rip), %rdi
	testq	%rdi, %rdi
	jne	.LBB2_2
# %bb.1:
	movl	$__hip_fatbin_wrapper, %edi
	callq	__hipRegisterFatBinary
	movq	%rax, %rdi
	movq	%rax, __hip_gpubin_handle_a07108289d32dd29(%rip)
.LBB2_2:
	xorps	%xmm0, %xmm0
	movups	%xmm0, 16(%rsp)
	movups	%xmm0, (%rsp)
	movl	$_Z6matmulPDF16bS_Pf, %esi
	movl	$.L__unnamed_1, %edx
	movl	$.L__unnamed_1, %ecx
	movl	$-1, %r8d
	xorl	%r9d, %r9d
	callq	__hipRegisterFunction
	movl	$__hip_module_dtor, %edi
	addq	$40, %rsp
	.cfi_def_cfa_offset 8
	jmp	atexit                          # TAILCALL
.Lfunc_end2:
	.size	__hip_module_ctor, .Lfunc_end2-__hip_module_ctor
	.cfi_endproc
                                        # -- End function
	.p2align	4                               # -- Begin function __hip_module_dtor
	.type	__hip_module_dtor,@function
__hip_module_dtor:                      # @__hip_module_dtor
	.cfi_startproc
# %bb.0:
	movq	__hip_gpubin_handle_a07108289d32dd29(%rip), %rdi
	testq	%rdi, %rdi
	je	.LBB3_2
# %bb.1:
	pushq	%rax
	.cfi_def_cfa_offset 16
	callq	__hipUnregisterFatBinary
	movq	$0, __hip_gpubin_handle_a07108289d32dd29(%rip)
	addq	$8, %rsp
	.cfi_def_cfa_offset 8
.LBB3_2:
	retq
.Lfunc_end3:
	.size	__hip_module_dtor, .Lfunc_end3-__hip_module_dtor
	.cfi_endproc
                                        # -- End function
	.type	_Z6matmulPDF16bS_Pf,@object     # @_Z6matmulPDF16bS_Pf
	.section	.rodata,"a",@progbits
	.globl	_Z6matmulPDF16bS_Pf
	.p2align	3, 0x0
_Z6matmulPDF16bS_Pf:
	.quad	_Z21__device_stub__matmulPDF16bS_Pf
	.size	_Z6matmulPDF16bS_Pf, 8

	.type	.L__unnamed_1,@object           # @0
	.section	.rodata.str1.1,"aMS",@progbits,1
.L__unnamed_1:
	.asciz	"_Z6matmulPDF16bS_Pf"
	.size	.L__unnamed_1, 20

	.type	.L__unnamed_2,@object           # @1
	.section	.hip_fatbin,"a",@progbits
	.p2align	12, 0x0
.L__unnamed_2:
	.asciz	"__CLANG_OFFLOAD_BUNDLE__\002\000\000\000\000\000\000\000\000\020\000\000\000\000\000\000\000\000\000\000\000\000\000\000\036\000\000\000\000\000\000\000host-x86_64-unknown-linux-gnu-\000\020\000\000\000\000\000\000(\035\000\000\000\000\000\000\037\000\000\000\000\000\000\000hipv4-amdgcn-amd-amdhsa--gfx942\000\000\000\000\000\000\000\000\000\000\000\000\000\000\000\000\000\000\000\000\000\000\000\000\000\000\000\000\000\000\000\000\000\000\000\000\000\000\000\000\000\000\000\000\000\000\000\000\000\000\000\000\000\000\000\000\000\000\000\000\000\000\000\000\000\000\000\000\000\000\000\000\000\000\000\000\000\000\000\000\000\000\000\000\000\000\000\000\000\000\000\000\000\000\000\000\000\000\000\000\000\000\000\000\000\000\000\000\000\000\000\000\000\000\000\000\000\000\000\000\000\000\000\000\000\000\000\000\000\000\000\000\000\000\000\000\000\000\000\000\000\000\000\000\000\000\000\000\000\000\000\000\000\000\000\000\000\000\000\000\000\000\000\000\000\000\000\000\000\000\000\000\000\000\000\000\000\000\000\000\000\000\000\000\000\000\000\000\000\000\000\000\000\000\000\000\000\000\000\000\000\000\000\000\000\000\000\000\000\000\000\000\000\000\000\000\000\000\000\000\000\000\000\000\000\000\000\000\000\000\000\000\000\000\000\000\000\000\000\000\000\000\000\000\000\000\000\000\000\000\000\000\000\000\000\000\000\000\000\000\000\000\000\000\000\000\000\000\000\000\000\000\000\000\000\000\000\000\000\000\000\000\000\000\000\000\000\000\000\000\000\000\000\000\000\000\000\000\000\000\000\000\000\000\000\000\000\000\000\000\000\000\000\000\000\000\000\000\000\000\000\000\000\000\000\000\000\000\000\000\000\000\000\000\000\000\000\000\000\000\000\000\000\000\000\000\000\000\000\000\000\000\000\000\000\000\000\000\000\000\000\000\000\000\000\000\000\000\000\000\000\000\000\000\000\000\000\000\000\000\000\000\000\000\000\000\000\000\000\000\000\000\000\000\000\000\000\000\000\000\000\000\000\000\000\000\000\000\000\000\000\000\000\000\000\000\000\000\000\000\000\000\000\000\000\000\000\000\000\000\000\000\000\000\000\000\000\000\000\000\000\000\000\000\000\000\000\000\000\000\000\000\000\000\000\000\000\000\000\000\000\000\000\000\000\000\000\000\000\000\000\000\000\000\000\000\000\000\000\000\000\000\000\000\000\000\000\000\000\000\000\000\000\000\000\000\000\000\000\000\000\000\000\000\000\000\000\000\000\000\000\000\000\000\000\000\000\000\000\000\000\000\000\000\000\000\000\000\000\000\000\000\000\000\000\000\000\000\000\000\000\000\000\000\000\000\000\000\000\000\000\000\000\000\000\000\000\000\000\000\000\000\000\000\000\000\000\000\000\000\000\000\000\000\000\000\000\000\000\000\000\000\000\000\000\000\000\000\000\000\000\000\000\000\000\000\000\000\000\000\000\000\000\000\000\000\000\000\000\000\000\000\000\000\000\000\000\000\000\000\000\000\000\000\000\000\000\000\000\000\000\000\000\000\000\000\000\000\000\000\000\000\000\000\000\000\000\000\000\000\000\000\000\000\000\000\000\000\000\000\000\000\000\000\000\000\000\000\000\000\000\000\000\000\000\000\000\000\000\000\000\000\000\000\000\000\000\000\000\000\000\000\000\000\000\000\000\000\000\000\000\000\000\000\000\000\000\000\000\000\000\000\000\000\000\000\000\000\000\000\000\000\000\000\000\000\000\000\000\000\000\000\000\000\000\000\000\000\000\000\000\000\000\000\000\000\000\000\000\000\000\000\000\000\000\000\000\000\000\000\000\000\000\000\000\000\000\000\000\000\000\000\000\000\000\000\000\000\000\000\000\000\000\000\000\000\000\000\000\000\000\000\000\000\000\000\000\000\000\000\000\000\000\000\000\000\000\000\000\000\000\000\000\000\000\000\000\000\000\000\000\000\000\000\000\000\000\000\000\000\000\000\000\000\000\000\000\000\000\000\000\000\000\000\000\000\000\000\000\000\000\000\000\000\000\000\000\000\000\000\000\000\000\000\000\000\000\000\000\000\000\000\000\000\000\000\000\000\000\000\000\000\000\000\000\000\000\000\000\000\000\000\000\000\000\000\000\000\000\000\000\000\000\000\000\000\000\000\000\000\000\000\000\000\000\000\000\000\000\000\000\000\000\000\000\000\000\000\000\000\000\000\000\000\000\000\000\000\000\000\000\000\000\000\000\000\000\000\000\000\000\000\000\000\000\000\000\000\000\000\000\000\000\000\000\000\000\000\000\000\000\000\000\000\000\000\000\000\000\000\000\000\000\000\000\000\000\000\000\000\000\000\000\000\000\000\000\000\000\000\000\000\000\000\000\000\000\000\000\000\000\000\000\000\000\000\000\000\000\000\000\000\000\000\000\000\000\000\000\000\000\000\000\000\000\000\000\000\000\000\000\000\000\000\000\000\000\000\000\000\000\000\000\000\000\000\000\000\000\000\000\000\000\000\000\000\000\000\000\000\000\000\000\000\000\000\000\000\000\000\000\000\000\000\000\000\000\000\000\000\000\000\000\000\000\000\000\000\000\000\000\000\000\000\000\000\000\000\000\000\000\000\000\000\000\000\000\000\000\000\000\000\000\000\000\000\000\000\000\000\000\000\000\000\000\000\000\000\000\000\000\000\000\000\000\000\000\000\000\000\000\000\000\000\000\000\000\000\000\000\000\000\000\000\000\000\000\000\000\000\000\000\000\000\000\000\000\000\000\000\000\000\000\000\000\000\000\000\000\000\000\000\000\000\000\000\000\000\000\000\000\000\000\000\000\000\000\000\000\000\000\000\000\000\000\000\000\000\000\000\000\000\000\000\000\000\000\000\000\000\000\000\000\000\000\000\000\000\000\000\000\000\000\000\000\000\000\000\000\000\000\000\000\000\000\000\000\000\000\000\000\000\000\000\000\000\000\000\000\000\000\000\000\000\000\000\000\000\000\000\000\000\000\000\000\000\000\000\000\000\000\000\000\000\000\000\000\000\000\000\000\000\000\000\000\000\000\000\000\000\000\000\000\000\000\000\000\000\000\000\000\000\000\000\000\000\000\000\000\000\000\000\000\000\000\000\000\000\000\000\000\000\000\000\000\000\000\000\000\000\000\000\000\000\000\000\000\000\000\000\000\000\000\000\000\000\000\000\000\000\000\000\000\000\000\000\000\000\000\000\000\000\000\000\000\000\000\000\000\000\000\000\000\000\000\000\000\000\000\000\000\000\000\000\000\000\000\000\000\000\000\000\000\000\000\000\000\000\000\000\000\000\000\000\000\000\000\000\000\000\000\000\000\000\000\000\000\000\000\000\000\000\000\000\000\000\000\000\000\000\000\000\000\000\000\000\000\000\000\000\000\000\000\000\000\000\000\000\000\000\000\000\000\000\000\000\000\000\000\000\000\000\000\000\000\000\000\000\000\000\000\000\000\000\000\000\000\000\000\000\000\000\000\000\000\000\000\000\000\000\000\000\000\000\000\000\000\000\000\000\000\000\000\000\000\000\000\000\000\000\000\000\000\000\000\000\000\000\000\000\000\000\000\000\000\000\000\000\000\000\000\000\000\000\000\000\000\000\000\000\000\000\000\000\000\000\000\000\000\000\000\000\000\000\000\000\000\000\000\000\000\000\000\000\000\000\000\000\000\000\000\000\000\000\000\000\000\000\000\000\000\000\000\000\000\000\000\000\000\000\000\000\000\000\000\000\000\000\000\000\000\000\000\000\000\000\000\000\000\000\000\000\000\000\000\000\000\000\000\000\000\000\000\000\000\000\000\000\000\000\000\000\000\000\000\000\000\000\000\000\000\000\000\000\000\000\000\000\000\000\000\000\000\000\000\000\000\000\000\000\000\000\000\000\000\000\000\000\000\000\000\000\000\000\000\000\000\000\000\000\000\000\000\000\000\000\000\000\000\000\000\000\000\000\000\000\000\000\000\000\000\000\000\000\000\000\000\000\000\000\000\000\000\000\000\000\000\000\000\000\000\000\000\000\000\000\000\000\000\000\000\000\000\000\000\000\000\000\000\000\000\000\000\000\000\000\000\000\000\000\000\000\000\000\000\000\000\000\000\000\000\000\000\000\000\000\000\000\000\000\000\000\000\000\000\000\000\000\000\000\000\000\000\000\000\000\000\000\000\000\000\000\000\000\000\000\000\000\000\000\000\000\000\000\000\000\000\000\000\000\000\000\000\000\000\000\000\000\000\000\000\000\000\000\000\000\000\000\000\000\000\000\000\000\000\000\000\000\000\000\000\000\000\000\000\000\000\000\000\000\000\000\000\000\000\000\000\000\000\000\000\000\000\000\000\000\000\000\000\000\000\000\000\000\000\000\000\000\000\000\000\000\000\000\000\000\000\000\000\000\000\000\000\000\000\000\000\000\000\000\000\000\000\000\000\000\000\000\000\000\000\000\000\000\000\000\000\000\000\000\000\000\000\000\000\000\000\000\000\000\000\000\000\000\000\000\000\000\000\000\000\000\000\000\000\000\000\000\000\000\000\000\000\000\000\000\000\000\000\000\000\000\000\000\000\000\000\000\000\000\000\000\000\000\000\000\000\000\000\000\000\000\000\000\000\000\000\000\000\000\000\000\000\000\000\000\000\000\000\000\000\000\000\000\000\000\000\000\000\000\000\000\000\000\000\000\000\000\000\000\000\000\000\000\000\000\000\000\000\000\000\000\000\000\000\000\000\000\000\000\000\000\000\000\000\000\000\000\000\000\000\000\000\000\000\000\000\000\000\000\000\000\000\000\000\000\000\000\000\000\000\000\000\000\000\000\000\000\000\000\000\000\000\000\000\000\000\000\000\000\000\000\000\000\000\000\000\000\000\000\000\000\000\000\000\000\000\000\000\000\000\000\000\000\000\000\000\000\000\000\000\000\000\000\000\000\000\000\000\000\000\000\000\000\000\000\000\000\000\000\000\000\000\000\000\000\000\000\000\000\000\000\000\000\000\000\000\000\000\000\000\000\000\000\000\000\000\000\000\000\000\000\000\000\000\000\000\000\000\000\000\000\000\000\000\000\000\000\000\000\000\000\000\000\000\000\000\000\000\000\000\000\000\000\000\000\000\000\000\000\000\000\000\000\000\000\000\000\000\000\000\000\000\000\000\000\000\000\000\000\000\000\000\000\000\000\000\000\000\000\000\000\000\000\000\000\000\000\000\000\000\000\000\000\000\000\000\000\000\000\000\000\000\000\000\000\000\000\000\000\000\000\000\000\000\000\000\000\000\000\000\000\000\000\000\000\000\000\000\000\000\000\000\000\000\000\000\000\000\000\000\000\000\000\000\000\000\000\000\000\000\000\000\000\000\000\000\000\000\000\000\000\000\000\000\000\000\000\000\000\000\000\000\000\000\000\000\000\000\000\000\000\000\000\000\000\000\000\000\000\000\000\000\000\000\000\000\000\000\000\000\000\000\000\000\000\000\000\000\000\000\000\000\000\000\000\000\000\000\000\000\000\000\000\000\000\000\000\000\000\000\000\000\000\000\000\000\000\000\000\000\000\000\000\000\000\000\000\000\000\000\000\000\000\000\000\000\000\000\000\000\000\000\000\000\000\000\000\000\000\000\000\000\000\000\000\000\000\000\000\000\000\000\000\000\000\000\000\000\000\000\000\000\000\000\000\000\000\000\000\000\000\000\000\000\000\000\000\000\000\000\000\000\000\000\000\000\000\000\000\000\000\000\000\000\000\000\000\000\000\000\000\000\000\000\000\000\000\000\000\000\000\000\000\000\000\000\000\000\000\000\000\000\000\000\000\000\000\000\000\000\000\000\000\000\000\000\000\000\000\000\000\000\000\000\000\000\000\000\000\000\000\000\000\000\000\000\000\000\000\000\000\000\000\000\000\000\000\000\000\000\000\000\000\000\000\000\000\000\000\000\000\000\000\000\000\000\000\000\000\000\000\000\000\000\000\000\000\000\000\000\000\000\000\000\000\000\000\000\000\000\000\000\000\000\000\000\000\000\000\000\000\000\000\000\000\000\000\000\000\000\000\000\000\000\000\000\000\000\000\000\000\000\000\000\000\000\000\000\000\000\000\000\000\000\000\000\000\000\000\000\000\000\000\000\000\000\000\000\000\000\000\000\000\000\000\000\000\000\000\000\000\000\000\000\000\000\000\000\000\000\000\000\000\000\000\000\000\000\000\000\000\000\000\000\000\000\000\000\000\000\000\000\000\000\000\000\000\000\000\000\000\000\000\000\000\000\000\000\000\000\000\000\000\000\000\000\000\000\000\000\000\000\000\000\000\000\000\000\000\000\000\000\000\000\000\000\000\000\000\000\000\000\000\000\000\000\000\000\000\000\000\000\000\000\000\000\000\000\000\000\000\000\000\000\000\000\000\000\000\000\000\000\000\000\000\000\000\000\000\000\000\000\000\000\000\000\000\000\000\000\000\000\000\000\000\000\000\000\000\000\000\000\000\000\000\000\000\000\000\000\000\000\000\000\000\000\000\000\000\000\000\000\000\000\000\000\000\000\000\000\000\000\000\000\000\000\000\000\000\000\000\000\000\000\000\000\000\000\000\000\000\000\000\000\000\000\000\000\000\000\000\000\000\000\000\000\000\000\000\000\000\000\000\000\000\000\000\000\000\000\000\000\000\000\000\000\000\000\000\000\000\000\000\000\000\000\000\000\000\000\000\000\000\000\000\000\000\000\000\000\000\000\000\000\000\000\000\000\000\000\000\000\000\000\000\000\000\000\000\000\000\000\000\000\000\000\000\000\000\000\000\000\000\000\000\000\000\000\000\000\000\000\000\000\000\000\000\000\000\000\000\000\000\000\000\000\000\000\000\000\000\000\000\000\000\000\000\000\000\000\000\000\000\000\000\000\000\000\000\000\000\000\000\000\000\000\000\000\000\000\000\000\000\000\000\000\000\000\000\000\000\000\000\000\000\000\000\000\000\000\000\000\000\000\000\000\000\000\000\000\000\000\000\000\000\000\000\000\000\000\000\000\000\000\000\000\000\000\000\000\000\000\000\000\000\000\000\000\000\000\000\000\000\000\000\000\000\000\000\000\000\000\000\000\000\000\000\000\000\000\000\000\000\000\000\000\000\000\000\000\000\000\000\000\000\000\000\000\000\000\000\000\000\000\000\000\000\000\000\000\000\000\000\000\000\000\000\000\000\000\000\000\000\000\000\000\000\000\000\000\000\000\000\000\000\000\000\000\000\000\000\000\000\000\000\000\000\000\000\000\000\000\000\000\000\000\000\000\000\000\000\000\000\000\000\000\000\000\000\000\000\000\000\000\000\000\000\000\000\000\000\000\000\000\000\000\000\000\000\000\000\000\000\000\000\000\000\000\000\000\000\000\000\000\000\000\000\000\000\000\000\000\000\000\000\000\000\000\000\000\000\000\000\000\000\000\000\000\000\000\000\000\000\000\000\000\000\000\000\000\000\000\000\000\000\000\000\000\000\000\000\000\000\000\000\000\000\000\000\000\000\000\000\000\000\000\000\000\000\000\000\000\000\000\000\000\000\000\000\000\000\000\000\000\000\000\000\000\000\000\000\000\000\000\000\000\000\000\000\000\000\000\000\000\000\000\000\000\000\000\000\000\000\000\000\000\000\000\000\000\000\000\000\000\000\000\000\000\000\000\000\000\000\000\000\000\000\000\000\000\000\000\000\000\000\000\000\000\000\000\000\000\000\000\000\000\000\000\000\000\000\000\000\000\000\000\000\000\000\000\000\000\000\000\000\000\000\000\000\000\000\000\000\000\000\000\000\000\000\000\000\000\000\000\000\000\000\000\000\000\000\000\000\000\000\000\000\000\000\000\000\000\000\000\000\000\000\000\000\000\000\000\000\000\000\000\000\000\000\000\000\000\000\000\000\000\000\000\000\000\000\000\000\000\000\000\000\000\000\000\000\000\000\000\000\000\000\000\000\000\000\000\000\000\000\000\000\000\000\000\000\000\000\000\000\000\000\000\000\000\000\000\000\000\000\000\000\000\000\000\000\000\000\000\000\000\000\000\000\000\000\000\000\000\000\000\000\000\000\000\000\000\000\000\000\000\000\000\000\000\000\000\000\000\000\000\000\000\000\000\000\000\000\000\000\000\000\000\000\000\000\000\000\000\000\000\000\000\000\000\000\000\000\000\000\000\000\000\000\000\000\000\000\000\000\000\000\000\000\000\000\000\000\000\000\000\000\000\000\000\000\000\000\000\000\000\000\000\000\000\000\000\000\000\000\000\000\000\000\000\000\000\000\000\000\000\000\000\000\000\000\000\000\000\000\000\000\000\000\000\000\000\000\000\000\000\000\000\000\000\000\000\000\000\000\000\000\000\000\000\000\000\000\000\000\000\000\000\000\000\000\000\000\000\000\000\000\000\000\000\000\000\000\000\000\000\000\000\000\000\000\000\000\000\000\000\000\000\000\000\000\000\000\000\000\000\000\000\000\000\000\000\000\000\000\000\000\000\000\000\000\000\000\000\000\000\000\000\000\000\000\000\000\000\000\000\000\000\000\000\000\000\000\000\000\000\000\000\000\000\000\000\000\000\000\000\000\000\000\000\000\000\000\000\000\000\000\000\000\000\000\000\000\000\000\000\000\000\000\000\000\000\000\000\000\000\000\000\000\000\000\000\000\000\000\000\000\000\000\000\000\000\000\000\000\000\000\000\000\000\000\000\000\000\000\000\000\000\000\000\000\000\000\000\000\000\000\000\000\000\000\000\000\000\000\000\000\000\000\000\000\000\000\000\000\000\000\000\000\000\000\000\000\000\000\000\000\000\000\000\000\000\000\000\000\000\000\000\000\000\000\000\000\000\000\000\000\000\000\000\000\000\000\000\000\000\000\000\000\000\000\000\000\000\000\000\000\000\000\000\000\000\000\000\000\000\000\000\000\000\000\000\000\000\000\000\000\000\000\000\000\000\000\000\000\000\000\000\000\000\000\000\000\000\000\000\000\000\000\000\000\000\000\000\177ELF\002\001\001@\004\000\000\000\000\000\000\000\003\000\340\000\001\000\000\000\000\000\000\000\000\000\000\000@\000\000\000\000\000\000\000\350\030\000\000\000\000\000\000L\005\000\000@\0008\000\t\000@\000\021\000\017\000\006\000\000\000\004\000\000\000@\000\000\000\000\000\000\000@\000\000\000\000\000\000\000@\000\000\000\000\000\000\000\370\001\000\000\000\000\000\000\370\001\000\000\000\000\000\000\b\000\000\000\000\000\000\000\001\000\000\000\004\000\000\000\000\000\000\000\000\000\000\000\000\000\000\000\000\000\000\000\000\000\000\000\000\000\000\000@\006\000\000\000\000\000\000@\006\000\000\000\000\000\000\000\020\000\000\000\000\000\000\001\000\000\000\005\000\000\000\000\007\000\000\000\000\000\000\000\027\000\000\000\000\000\000\000\027\000\000\000\000\000\000@\f\000\000\000\000\000\000@\f\000\000\000\000\000\000\000\020\000\000\000\000\000\000\001\000\000\000\006\000\000\000@\023\000\000\000\000\000\000@3\000\000\000\000\000\000@3\000\000\000\000\000\000p\000\000\000\000\000\000\000\300\f\000\000\000\000\000\000\000\020\000\000\000\000\000\000\001\000\000\000\006\000\000\000\260\023\000\000\000\000\000\000\260C\000\000\000\000\000\000\260C\000\000\000\000\000\000\000\000\000\000\000\000\000\000\001\000\000\000\000\000\000\000\000\020\000\000\000\000\000\000\002\000\000\000\006\000\000\000@\023\000\000\000\000\000\000@3\000\000\000\000\000\000@3\000\000\000\000\000\000p\000\000\000\000\000\000\000p\000\000\000\000\000\000\000\b\000\000\000\000\000\000\000R\345td\004\000\000\000@\023\000\000\000\000\000\000@3\000\000\000\000\000\000@3\000\000\000\000\000\000p\000\000\000\000\000\000\000\300\f\000\000\000\000\000\000\001\000\000\000\000\000\000\000Q\345td\006\000\000\000\000\000\000\000\000\000\000\000\000\000\000\000\000\000\000\000\000\000\000\000\000\000\000\000\000\000\000\000\000\000\000\000\000\000\000\000\000\000\000\000\000\000\000\000\000\000\000\000\004\000\000\000\004\000\000\0008\002\000\000\000\000\000\0008\002\000\000\000\000\000\0008\002\000\000\000\000\000\000\244\002\000\000\000\000\000\000\244\002\000\000\000\000\000\000\004\000\000\000\000\000\000\000\007\000\000\000\215\002\000\000 \000\000\000AMDGPU\000\000\203\256amdhsa.kernels\221\336\000\022\253.agpr_count\000\245.args\223\204\256.address_space\246global\247.offset\000\245.size\b\253.value_kind\255global_buffer\204\256.address_space\246global\247.offset\b\245.size\b\253.value_kind\255global_buffer\204\256.address_space\246global\247.offset\020\245.size\b\253.value_kind\255global_buffer\271.group_segment_fixed_size\316\000\001\000\000\266.kernarg_segment_align\b\265.kernarg_segment_size\030\251.language\250OpenCL C\261.language_version\222\002\000\270.max_flat_workgroup_size\315\004\000\245.name\263_Z6matmulPDF16bS_Pf\273.private_segment_fixed_size\000\253.sgpr_count\022\261.sgpr_spill_count\000\247.symbol\266_Z6matmulPDF16bS_Pf.kd\270.uniform_work_group_size\001\263.uses_dynamic_stack\302\253.vgpr_countr\261.vgpr_spill_count\000\257.wavefront_size@\255amdhsa.target\271amdgcn-amd-amdhsa--gfx942\256amdhsa.version\222\001\002\000\000\000\000\000\000\000\000\000\000\000\000\000\000\000\000\000\000\000\000\000\000\000\000\000\000\000\000\000\000\000\001\000\000\000\022\003\007\000\000\027\000\000\000\000\000\000$\b\000\000\000\000\000\000\025\000\000\000\021\003\006\000\000\006\000\000\000\000\000\000@\000\000\000\000\000\000\000,\000\000\000\021\000\n\000\260C\000\000\000\000\000\000\001\000\000\000\000\000\000\000\001\000\000\000\001\000\000\000\001\000\000\000\032\000\000\000\200\220\000\000\200\000\000\004\001\000\000\000\016\312H\351\214\225\0253\307\306\260\234\004\000\000\000\004\000\000\000\002\000\000\000\003\000\000\000\001\000\000\000\000\000\000\000\000\000\000\000\000\000\000\000\000\000\000\000\000\000\000\000\000_Z6matmulPDF16bS_Pf\000_Z6matmulPDF16bS_Pf.kd\000__hip_cuid_a07108289d32dd29\000\000\000\000\000\000\000\000\000\000\000\000\000\000\000\000\000\000\000\000\000\000\000\000\000\000\000\000\000\000\000\000\000\000\000\000\000\000\000\000\000\000\000\001\000\000\000\000\000\030\000\000\000\000\000\000\000\000\021\000\000\000\000\000\000\000\000\000\000\000\000\000\000\000\000\000\000\000\000\000\000\000\000\000\000\034\000\000\000\016\003\257\000\204\000\000\000\b\000\000\000\000\000\000\000\000\000\000\000\000\000\000\000\000\000\000\000\000\000\000\000\000\000\000\000\000\000\000\000\000\000\000\000\000\000\000\000\000\000\000\000\000\000\000\000\000\000\000\000\000\000\000\000\000\000\000\000\000\000\000\000\000\000\000\000\000\000\000\000\000\000\000\000\000\000\000\000\000\000\000\000\000\000\000\000\000\000\000\000\000\000\000\000\000\000\000\000\000\000\000\000\000\000\000\000\000\000\000\000\000\000\000\000\000\000\000\000\000\000\000\000\000\000\000\000\000\000\000\000\000\000\000\000\000\000\000\000\000\000\000\000\000\000\000\000\000\000\000\000\000\000\000\000\000\000\000\000\000\000\000\000\000\000\000\000\000\000\000\000\000\000\000\000\000\000\000\000\000\000\000\000\000\000\000\000\000\000\000\000\000\000\000\000\000\000\000\000\000\001\n\300\000\000\000\000\000\002\006\300\020\000\000\000\002\237\000\220\000\234\001\217\002\001\001\201\001\204\003\220\001\320\001\206\000\231\000\217\002\001\201\201\002\000\002\201\003\235\000\217\003\000\000\201\000\377\000\206\370\001\000\000\003\000\200\201\001\377\003\223\000\000\b\000\003\377\203\222\r\000\002\000\001\003\003\201\003\377\003\223\000\000\b\000\003\027\203\276\003\202\013\220\003\304\003\206\001\003\201\201\001\026\201\276\002\203\002\216\002\377\002\206\000\374\377\377\001\210\n\216\n\002\n\201\000\227\000\216\n\215\002\216\013\225\001\216\002\237\003\220\001\000\000\201\000\237\001\220\002\201\202\216\204\000\002$\177\300\214\277\004\002\002\200\202\000\250 \260\002\002&\005\003\003\202\000\201\204\216\002\000\000\322T\035\005\004\006\004\004\200\000\200\\\334\002\000\002\006\007\005\005\202\000\200\\\334\002\000\004\n\377\250\254&\300\000\000\000\203\000\034$\260\000\036&\377\000\252&\317\000\000\000\202\000 $\202\000\"&\201\000$$\000\000\001\322\000\037Y\005\023\000\000\322U\r=\004\377  &\374\000\000\000\260$$&\260\034\034&\001\000\000\322T\r\005\004\000\000\000\322\000\r=\004\200\002\006~\210 \272*\023\035\266*\377& (\000\004\000\000\377&((\000\b\000\000\377&&(\000\f\000\000\001%\274*\000\035\276*\377\000\002(\000\004\000\000\377\000\036(\000\b\000\000\377\000\000(\000\f\000\000\020\035\270*\024\035\256*\023\035\260*\001\035\300*\017\035\262*\000\035\264*\016\000\b\322\004\000\t\004R\000\b\322\016\001\001\003\200\"\224}\000\000\b\322\002\000\t\004\201\000\201\276\003\003\b~\003\003\n~\377\274\302(\000\200\000\000\000\000\b\322\000\001\001\003\003\003\004~\003\003|~\003\003~~\003\003\200~\003\003\202~\003\003t~\003\003v~\003\003x~\003\003z~\003\003l~\003\003n~\003\003p~\003\003r~\003\003\\~\003\003^~\003\003`~\003\003b~\003\003T~\003\003V~\003\003X~\003\003Z~\003\003<~\003\003>~\003\003@~\003\003B~\003\003L~\003\003N~\003\003P~\003\003R~\003\003D~\003\003F~\003\003H~\003\003J~\003\0034~\003\0036~\003\0038~\003\003:~q\017\214\277\000\000~\330]\006\000\016\000\000~\330]\007\000\017\000\000~\330]\b\000\020\000\000~\330]\t\000\022p\017\214\277\000\000~\330]\n\000\023\000\000~\330]\013\000\024\000\000~\330]\f\000\025\000\000~\330]\r\000\026\177\305\214\277\020\r\f\000\177\304\214\277\022\017\016\000\b\035\020\000\t\037\022\000\000\000\276\331^\006\000\000\177\302\214\277\025\025\f\000\177\301\214\277\026\027\016\000\f'\020\000\r)\022\000\000\200\276\331^\006\000\000\003\003$~\003\003&~\003\003(~\003\003*~\003\003,~\003\003.~\003\0030~\003\0032~\003\003\034~\003\003\036~\003\003 ~\003\003\"~\003\003\024~\003\003\026~\003\003\030~\003\003\032~\003\003\f~\003\003\016~\003\003\020~\003\003\022~\003\003d~\003\003f~\003\003h~\003\003j~\177\300\214\277\000\000\212\277\001\301\002\201\002\201\002\206\002\216\002\216\002\276\204(\002\300\206(\002\262\214(\002\264\224(\217\032\202\276\002\266\216(\002\270\220(\000\000\376\331B\000\000b\000\000\376\331C\000\000B\000\000\376\331G\000\000f\000\000\376\331H\000\000j\000\000\376\331F\000\000F\000\000\376\331J\000\000J\002\256\234(\002\260\236(\000\000\376\331N\000\000n\000\000\376\331O\000\000N\177\305\214\277>\000\341\323b\315\372\004\001\216\002\216\001\201\001\201\002\377\002\206\000@\000\000:\000\341\323B\315\352\004\000\001\001\261\177\303\214\2776\000\341\323F\315\332\004\177\302\214\277.\000\341\323J\315\272\004*\000\341\323b\325\252\004\177\301\214\277\032\000\341\323b\335j\004\177\300\214\277\006\000\341\323b\235\032\004>\000\341\323d\321\372\004:\000\341\323D\321\352\0046\000\341\323H\321\332\004.\000\341\323L\321\272\004\000\200\\\334\000\000\177f\000\000\b\322\000\001\001\003*\000\341\323d\331\252\004\032\000\341\323d\341j\004\006\000\341\323d\241\032\004\000\200\\\334R\000\177bR\000\b\322R\001\001\003\036\000\341\323B\325z\004\026\000\341\323B\335Z\0042\000\341\323B\235\312\004q\017\214\277\000\000~\330]h\000B&\000\341\323F\325\232\004\000\000~\330]i\000C\177\301\214\277B\315\204\000\016\000\341\323F\335:\004\177\300\214\277C\317\206\000\022\000\341\323F\235J\004p\017\214\277\000\000~\330]d\000F\000\000~\330]e\000G\"\000\341\323J\325\212\004\177\301\214\277F\305\214\000\n\000\341\323J\335*\004\177\300\214\277G\307\216\000\002\000\341\323J\235\n\004\002\274\224(\002\302\226h\036\000\341\323D\331z\004\026\000\341\323D\341Z\0042\000\341\323D\241\312\004\000\000~\330]f\000D\000\000~\330]g\000E\177\301\214\277h\211\210\000&\000\341\323H\331\232\004\177\300\214\277i\213\212\000\016\000\341\323H\341:\004\022\000\341\323H\241J\004\000\000~\330]b\000H\000\000~\330]c\000I\177\301\214\277d\221\220\000\"\000\341\323L\331\212\004\177\300\214\277e\223\222\000\000\000\276\331JB\000\000\000\000\276\331KF\000\000\177\300\214\277\n\000\341\323L\341*\004\000\000\212\277\002\000\341\323L\241\n\004g\377\204\277\000@\376\331_\000\000F\000@\376\331`\000\000B\000\300\376\331[\000\000J\000\300\376\331\\\000\000N\n\000\000\201\000\237\001\220\215\252\000$\177\301\214\277:\000\341\323B\225\352\004\214\250\002&\000\202\200\216\000\000\002\322\001\001Z\005\\\000\341\323D\231\352\004\000@\376\331Y\000\000`\001\000\200\277\000@\376\331Z\000\000:\b\000\000\200\t\001\001\202>\000\341\323F\225\372\004\202\000\000$\200\002\002~R\000\b\322\000\000\001\004\177\301\214\2776\000\341\323`\225\332\004\377\000\202\276\000\000\b\000\377\000\002(\000\000\b\000\177\300\214\277.\000\341\323:\225\272\004*\000\341\323F\235\252\004\036\000\341\323B\235z\004&\000\341\323`\235\232\004\"\000\341\323:\235\212\004>\000\341\323H\231\372\0046\000\341\323b\231\332\004.\000\341\323<\231\272\004*\000\341\323H\241\252\004\036\000\341\323D\241z\004&\000\341\323b\241\232\004\"\000\341\323<\241\212\004\000\300\376\331W\000\000J\000\300\376\331X\000\000N\177\300\214\277\000\000\212\277\032\000\341\323F\225j\004\000\200|\334\000>\000\000@\200|\334\000\\\000\000\200\200|\334\0006\000\000\000\200|\334\001*\000\000\026\000\341\323B\225Z\004\300\200|\334\000.\000\000\002\244T2\016\000\341\323`\225:\004\000\000\200\277\200\246V8@\200|\334*\036\177\000\006\000\341\323F\235\032\004\200\200|\334*&\177\000\300\200|\334*\"\177\000\377\000\002(\000\000\020\000\377\000\000(\000\000\030\000\n\000\341\323:\225*\004\377\244D2\000\000\020\000\032\000\341\323H\231j\004\000\000\200\277\200\246F8\026\000\341\323D\231Z\004\016\000\341\323b\231:\004\002\000\200\277\000\200|\334\001\032\000\000\001\000\200\277@\200|\334\"\026\177\000\006\000\341\323H\241\032\004\n\000\341\323<\231*\004\200\200|\334\"\016\177\000\005\000\200\277\300\200|\334\"\n\177\000\036\000\341\323B\235\312\004\000\200|\334\000\006\000\000\000\000\341\323:\235\n\004\000\000\200\277\377\244\f2\000\000\030\000\022\000\341\323`\235J\004\000\000\200\277\200\246\0168\032\000\341\323D\241z\004\000\000\341\323<\241\002\004\n\000\341\323b\241J\004\004\000\200\277@\200|\334\006\032\177\000\000\000\200\277\200\200|\334\006\n\177\000\300\200|\334\006\000\177\000\000\000\201\277\000\000\200\277\000\000\200\277\000\000\200\277\000\000\200\277\000\000\200\277\000\000\200\277\000\000\200\277\000\000\200\277\000\000\200\277\000\000\200\277\000\000\200\277\000\000\200\277\000\000\200\277\000\000\200\277\000\000\200\277\000\000\200\277\000\000\200\277\000\000\200\277\000\000\200\277\000\000\200\277\000\000\200\277\000\000\200\277\000\000\200\277\000\000\200\277\000\000\200\277\000\000\200\277\000\000\200\277\000\000\200\277\000\000\200\277\000\000\200\277\000\000\200\277\000\000\200\277\000\000\200\277\000\000\200\277\000\000\200\277\000\000\200\277\000\000\200\277\000\000\200\277\000\000\200\277\000\000\200\277\000\000\200\277\000\000\200\277\000\000\200\277\000\000\200\277\000\000\200\277\000\000\200\277\000\000\200\277\000\000\200\277\000\000\200\277\000\000\200\277\000\000\200\277\000\000\200\277\000\000\200\277\000\000\200\277\000\000\200\277\000\000\200\277\000\000\200\277\000\000\200\277\000\000\200\277\000\000\200\277\000\000\200\277\000\000\200\277\000\000\200\277\000\000\200\277\000\000\200\277\000\000\200\277\000\000\200\277\000\000\200\277\000\000\200\277\000\000\200\277\000\000\200\277\000\000\200\277\000\000\200\277\000\000\200\277\000\000\200\277\000\000\200\277\000\000\200\277\000\000\200\277\000\000\200\277\000\000\200\277\000\000\200\277\000\000\200\277\000\000\200\277\000\000\200\277\000\000\200\277\000\000\200\277\000\000\200\277\000\000\200\277\000\000\200\277\000\000\200\277\000\000\200\277\000\000\200\277\000\000\200\277\000\000\200\277\000\000\200\277\000\000\200\277\000\000\200\277\000\000\200\277\000\000\200\277\000\000\200\277\000\000\200\277\000\000\200\277\000\000\200\277\000\000\200\277\000\000\200\277\000\000\200\277\000\000\200\277\000\000\200\277\000\000\200\277\000\000\200\277\000\000\200\277\000\000\200\277\000\000\200\277\000\000\200\277\000\000\200\277\000\000\200\277\000\000\200\277\000\000\200\277\000\000\200\277\000\000\200\277\000\000\200\277\000\000\200\277\000\000\200\277\000\000\200\277\000\000\200\277\000\000\200\277\000\000\200\277\000\000\200\277\000\000\200\277\000\000\200\277\000\000\200\277\000\000\200\277\000\000\200\277\000\000\200\277\000\000\200\277\000\000\200\277\000\000\200\277\000\000\200\277\000\000\200\277\000\000\200\277\000\000\200\277\000\000\200\277\000\000\200\277\000\000\200\277\000\000\200\277\000\000\200\277\000\000\200\277\000\000\200\277\000\000\200\277\000\000\200\277\000\000\200\277\000\000\200\277\000\000\200\277\000\000\200\277\000\000\200\277\000\000\200\277\000\000\200\277\000\000\200\277\000\000\200\277\000\000\200\277\000\000\200\277\000\000\200\277\000\000\200\277\000\000\200\277\000\000\200\277\000\000\200\277\000\000\200\277\000\000\200\277\000\000\200\277\000\000\200\277\000\000\200\277\000\000\200\277\000\000\200\277\000\000\200\277\000\000\200\277\000\000\200\277\000\000\200\277\000\000\200\277\000\000\200\277\000\000\200\277\000\000\200\277\000\000\200\277\000\000\200\277\000\000\200\277\000\000\200\277\000\000\200\277\000\000\200\277\000\000\200\277\000\000\200\277\000\000\200\277\000\000\200\277\000\000\200\277\000\000\200\277\000\000\200\277\000\000\200\277\000\000\200\277\000\000\200\277\000\000\200\277\000\000\200\277\000\000\200\277\000\000\200\277\000\000\200\277\000\000\200\277\000\000\200\277\000\000\200\277\000\000\200\277\000\000\200\277\000\000\200\277\000\000\200\277\000\000\200\277\000\000\200\277\000\000\200\277\000\000\200\277\000\000\200\277\000\000\200\277\000\000\200\277\000\000\200\277\000\000\200\277\000\000\200\277\000\000\200\277\000\000\200\277\000\000\200\277\000\000\200\277\000\000\200\277\000\000\200\277\000\000\200\277\000\000\200\277\000\000\200\277\000\000\200\277\000\000\200\277\000\000\200\277\000\000\200\277\000\000\200\277\000\000\200\277\000\000\200\277\000\000\200\277\000\000\200\277\000\000\200\277\000\000\200\277\000\000\200\277\000\000\200\277\000\000\200\277\000\000\200\277\000\000\200\277\000\000\200\277\000\000\200\277\000\000\200\277\000\000\200\277\000\000\200\277\000\000\200\277\000\000\200\277\000\000\200\277\000\000\200\277\000\000\200\277\000\000\200\277\000\000\200\277\000\000\200\277\000\000\200\277\000\000\200\277\000\000\200\277\000\000\200\277\000\000\200\277\000\000\200\277\006\000\000\000\000\000\000\000\340\004\000\000\000\000\000\000\013\000\000\000\000\000\000\000\030\000\000\000\000\000\000\000\005\000\000\000\000\000\000\000\220\005\000\000\000\000\000\000\n\000\000\000\000\000\000\000H\000\000\000\000\000\000\000\365\376\377o\000\000\000\000@\005\000\000\000\000\000\000\004\000\000\000\000\000\000\000h\005\000\000\000\000\000\000\000\000\000\000\000\000\000\000\000\000\000\000\000\000\000\000\000AMD clang version 20.0.0git (https://github.com/RadeonOpenCompute/llvm-project roc-7.0.0 25314 f4087f6b428f0e6f575ebac8a8a724dab123d06e)\000Linker: AMD LLD 20.0.0 (/longer_pathname_so_that_rpms_can_support_packaging_the_debug_info_for_all_os_profiles/src/llvm-project/llvm f4087f6b428f0e6f575ebac8a8a724dab123d06e)\000\000\000\000\000\000\000\000\000\000\000\000\000\000\000\000\000\000\000\000\000\000\000\000\000\000\000\000\000\000\000\000\001\000\000\000\000\000\361\377r\000\000\000\000\000\000\000\000\000\000\000\000\000\000\000\036\000\000\000\000\000\361\377\000\000\000\000\000\000\000\000\000\000\000\000\000\000\000\000;\000\000\000\000\000\361\377\f\000\000\000\000\000\000\000\000\000\000\000\000\000\000\000]\000\000\000\000\000\361\377\000\000\000\000\000\000\000\000\000\000\000\000\000\000\000\000\202\000\000\000\000\000\361\377\001\000\000\000\000\000\000\000\000\000\000\000\000\000\000\000\237\000\000\000\000\000\361\377\000\000\000\000\000\000\000\000\000\000\000\000\000\000\000\000\305\000\000\000\000\000\361\377\000\000\000\000\000\000\000\000\000\000\000\000\000\000\000\000\355\000\000\000\000\000\361\377\000\000\000\000\000\000\000\000\000\000\000\000\000\000\000\000\017\001\000\000\000\000\361\377\000\000\000\000\000\000\000\000\000\000\000\000\000\000\000\0005\001\000\000\000\000\361\377\000\000\000\000\000\000\000\000\000\000\000\000\000\000\000\000I\001\000\000\000\000\361\377\000\000\000\000\000\000\000\000\000\000\000\000\000\000\000\000]\001\000\000\000\000\361\377\000\000\000\000\000\000\000\000\000\000\000\000\000\000\000\000\270\001\000\000\000\002\b\000@3\000\000\000\000\000\000\000\000\000\000\000\000\000\000q\001\000\000\022\003\007\000\000\027\000\000\000\000\000\000$\b\000\000\000\000\000\000\205\001\000\000\021\003\006\000\000\006\000\000\000\000\000\000@\000\000\000\000\000\000\000\234\001\000\000\021\000\n\000\260C\000\000\000\000\000\000\001\000\000\000\000\000\000\000\000.note\000.dynsym\000.gnu.hash\000.hash\000.dynstr\000.rodata\000.text\000.dynamic\000.relro_padding\000.bss\000.AMDGPU.csdata\000.AMDGPU.gpr_maximums\000.comment\000.symtab\000.shstrtab\000.strtab\000\000_Z6matmulPDF16bS_Pf.num_vgpr\000_Z6matmulPDF16bS_Pf.num_agpr\000_Z6matmulPDF16bS_Pf.numbered_sgpr\000_Z6matmulPDF16bS_Pf.private_seg_size\000_Z6matmulPDF16bS_Pf.uses_vcc\000_Z6matmulPDF16bS_Pf.uses_flat_scratch\000_Z6matmulPDF16bS_Pf.has_dyn_sized_stack\000_Z6matmulPDF16bS_Pf.has_recursion\000_Z6matmulPDF16bS_Pf.has_indirect_call\000amdgpu.max_num_vgpr\000amdgpu.max_num_agpr\000amdgpu.max_num_sgpr\000_Z6matmulPDF16bS_Pf\000_Z6matmulPDF16bS_Pf.kd\000__hip_cuid_a07108289d32dd29\000_DYNAMIC\000\000\000\000\000\000\000\000\000\000\000\000\000\000\000\000\000\000\000\000\000\000\000\000\000\000\000\000\000\000\000\000\000\000\000\000\000\000\000\000\000\000\000\000\000\000\000\000\000\000\000\000\000\000\000\000\000\000\000\000\000\000\000\000\000\000\000\000\000\000\000\001\000\000\000\007\000\000\000\002\000\000\000\000\000\000\0008\002\000\000\000\000\000\0008\002\000\000\000\000\000\000\244\002\000\000\000\000\000\000\000\000\000\000\000\000\000\000\004\000\000\000\000\000\000\000\000\000\000\000\000\000\000\000\007\000\000\000\013\000\000\000\002\000\000\000\000\000\000\000\340\004\000\000\000\000\000\000\340\004\000\000\000\000\000\000`\000\000\000\000\000\000\000\005\000\000\000\001\000\000\000\b\000\000\000\000\000\000\000\030\000\000\000\000\000\000\000\017\000\000\000\366\377\377o\002\000\000\000\000\000\000\000@\005\000\000\000\000\000\000@\005\000\000\000\000\000\000(\000\000\000\000\000\000\000\002\000\000\000\000\000\000\000\b\000\000\000\000\000\000\000\000\000\000\000\000\000\000\000\031\000\000\000\005\000\000\000\002\000\000\000\000\000\000\000h\005\000\000\000\000\000\000h\005\000\000\000\000\000\000(\000\000\000\000\000\000\000\002\000\000\000\000\000\000\000\004\000\000\000\000\000\000\000\004\000\000\000\000\000\000\000\037\000\000\000\003\000\000\000\002\000\000\000\000\000\000\000\220\005\000\000\000\000\000\000\220\005\000\000\000\000\000\000H\000\000\000\000\000\000\000\000\000\000\000\000\000\000\000\001\000\000\000\000\000\000\000\000\000\000\000\000\000\000\000'\000\000\000\001\000\000\000\002\000\000\000\000\000\000\000\000\006\000\000\000\000\000\000\000\006\000\000\000\000\000\000@\000\000\000\000\000\000\000\000\000\000\000\000\000\000\000@\000\000\000\000\000\000\000\000\000\000\000\000\000\000\000/\000\000\000\001\000\000\000\006\000\000\000\000\000\000\000\000\027\000\000\000\000\000\000\000\007\000\000\000\000\000\000@\f\000\000\000\000\000\000\000\000\000\000\000\000\000\000\000\001\000\000\000\000\000\000\000\000\000\000\000\000\000\0005\000\000\000\006\000\000\000\003\000\000\000\000\000\000\000@3\000\000\000\000\000\000@\023\000\000\000\000\000\000p\000\000\000\000\000\000\000\005\000\000\000\000\000\000\000\b\000\000\000\000\000\000\000\020\000\000\000\000\000\000\000>\000\000\000\b\000\000\000\003\000\000\000\000\000\000\000\2603\000\000\000\000\000\000\260\023\000\000\000\000\000\000P\f\000\000\000\000\000\000\000\000\000\000\000\000\000\000\001\000\000\000\000\000\000\000\000\000\000\000\000\000\000\000M\000\000\000\b\000\000\000\003\000\000\000\000\000\000\000\260C\000\000\000\000\000\000\260\023\000\000\000\000\000\000\001\000\000\000\000\000\000\000\000\000\000\000\000\000\000\000\001\000\000\000\000\000\000\000\000\000\000\000\000\000\000\000R\000\000\000\001\000\000\000\000\000\000\000\000\000\000\000\000\000\000\000\000\000\000\000\260\023\000\000\000\000\000\000\000\000\000\000\000\000\000\000\000\000\000\000\000\000\000\000\001\000\000\000\000\000\000\000\000\000\000\000\000\000\000\000a\000\000\000\001\000\000\000\000\000\000\000\000\000\000\000\000\000\000\000\000\000\000\000\260\023\000\000\000\000\000\000\000\000\000\000\000\000\000\000\000\000\000\000\000\000\000\000\001\000\000\000\000\000\000\000\000\000\000\000\000\000\000\000v\000\000\000\001\000\000\0000\000\000\000\000\000\000\000\000\000\000\000\000\000\000\000\260\023\000\000\000\000\000\0009\001\000\000\000\000\000\000\000\000\000\000\000\000\000\000\001\000\000\000\000\000\000\000\001\000\000\000\000\000\000\000\177\000\000\000\002\000\000\000\000\000\000\000\000\000\000\000\000\000\000\000\000\000\000\000\360\024\000\000\000\000\000\000\230\001\000\000\000\000\000\000\020\000\000\000\016\000\000\000\b\000\000\000\000\000\000\000\030\000\000\000\000\000\000\000\207\000\000\000\003\000\000\000\000\000\000\000\000\000\000\000\000\000\000\000\000\000\000\000\210\026\000\000\000\000\000\000\231\000\000\000\000\000\000\000\000\000\000\000\000\000\000\000\001\000\000\000\000\000\000\000\000\000\000\000\000\000\000\000\221\000\000\000\003\000\000\000\000\000\000\000\000\000\000\000\000\000\000\000\000\000\000\000!\027\000\000\000\000\000\000\301\001\000\000\000\000\000\000\000\000\000\000\000\000\000\000\001\000\000\000\000\000\000\000\000\000\000\000\000\000\000"
	.size	.L__unnamed_2, 11560

	.type	__hip_fatbin_wrapper,@object    # @__hip_fatbin_wrapper
	.section	.hipFatBinSegment,"a",@progbits
	.p2align	3, 0x0
__hip_fatbin_wrapper:
	.long	1212764230                      # 0x48495046
	.long	1                               # 0x1
	.quad	.L__unnamed_2
	.quad	0
	.size	__hip_fatbin_wrapper, 24

	.type	__hip_gpubin_handle_a07108289d32dd29,@object # @__hip_gpubin_handle_a07108289d32dd29
	.local	__hip_gpubin_handle_a07108289d32dd29
	.comm	__hip_gpubin_handle_a07108289d32dd29,8,8
	.section	.init_array,"aw",@init_array
	.p2align	3, 0x0
	.quad	__hip_module_ctor
	.type	__hip_cuid_a07108289d32dd29,@object # @__hip_cuid_a07108289d32dd29
	.bss
	.globl	__hip_cuid_a07108289d32dd29
__hip_cuid_a07108289d32dd29:
	.byte	0                               # 0x0
	.size	__hip_cuid_a07108289d32dd29, 1

	.ident	"AMD clang version 20.0.0git (https://github.com/RadeonOpenCompute/llvm-project roc-7.0.0 25314 f4087f6b428f0e6f575ebac8a8a724dab123d06e)"
	.section	".note.GNU-stack","",@progbits
	.addrsig
	.addrsig_sym _Z21__device_stub__matmulPDF16bS_Pf
	.addrsig_sym __hip_module_ctor
	.addrsig_sym __hip_module_dtor
	.addrsig_sym _Z6matmulPDF16bS_Pf
	.addrsig_sym .L__unnamed_2
	.addrsig_sym __hip_fatbin_wrapper
	.addrsig_sym __hip_cuid_a07108289d32dd29
